Certificate:
    Data:
        Version: 3 (0x2)
        Serial Number: 2 (0x2)
    Signature Algorithm: sha256WithRSAEncryption
        Issuer: C=CN, ST=Guangdong, L=Shenzhen, O=PTPT52, OU=PTPT52 OU, CN=PTPT52 CA/name=Natcap/emailAddress=ptpt52@ptpt52.info
        Validity
            Not Before: Nov 25 12:24:43 2017 GMT
            Not After : Nov 23 12:24:43 2027 GMT
        Subject: C=CN, ST=Guangdong, L=Shenzhen, O=PTPT52, OU=PTPT52 OU, CN=client/name=Natcap/emailAddress=ptpt52@ptpt52.info
        Subject Public Key Info:
            Public Key Algorithm: rsaEncryption
                Public-Key: (2048 bit)
                Modulus:
                    00:be:14:5f:a9:d6:90:9d:be:c2:f3:33:14:e2:61:
                    31:56:b4:99:f2:0d:61:fe:8f:d4:b2:79:7c:ff:f0:
                    d8:75:16:39:53:58:61:07:89:76:b8:22:c6:10:7f:
                    f1:24:5f:7e:c8:2b:32:3f:ba:8c:5e:20:85:af:69:
                    63:cf:f7:e7:2a:e2:31:e4:f0:57:19:59:f3:90:ef:
                    2c:13:4b:4a:eb:25:b0:02:28:bd:04:cb:42:77:26:
                    58:b2:fd:ae:ed:d8:42:dc:b3:2b:5a:2f:98:d4:7f:
                    71:bd:94:98:67:53:47:c2:8b:37:c1:91:4c:14:7c:
                    fc:30:dd:41:60:e0:84:40:b4:ed:82:73:0c:d6:8e:
                    6d:c9:b2:e5:e3:8e:68:9c:20:a2:2e:c6:1c:97:47:
                    37:63:a1:b3:6b:1e:e5:fb:d4:19:d3:2c:52:ae:4a:
                    02:dc:ec:d9:22:b6:f7:57:07:cc:f6:1f:ab:ce:29:
                    7b:4a:40:5c:df:14:b6:be:48:a5:53:bd:e5:01:bf:
                    7e:ac:b6:73:e8:2f:11:85:9a:d5:b4:82:50:e4:25:
                    bd:02:6a:5a:30:d2:cd:a4:ef:3a:4d:1a:4f:5f:e7:
                    8b:84:65:e1:6c:8b:3c:ef:e9:6c:93:12:66:7a:15:
                    ca:84:7e:3b:6f:e5:0c:d6:76:12:09:42:36:66:ad:
                    13:65
                Exponent: 65537 (0x10001)
        X509v3 extensions:
            X509v3 Basic Constraints: 
                CA:FALSE
            Netscape Comment: 
                Easy-RSA Generated Certificate
            X509v3 Subject Key Identifier: 
                C2:41:95:21:BA:DA:5A:8C:EF:13:A6:48:19:78:79:09:16:0F:F2:34
            X509v3 Authority Key Identifier: 
                keyid:79:BA:23:56:1F:EB:1F:ED:F0:50:D8:82:86:79:EC:C2:5A:A4:8D:1C
                DirName:/C=CN/ST=Guangdong/L=Shenzhen/O=PTPT52/OU=PTPT52 OU/CN=PTPT52 CA/name=Natcap/emailAddress=ptpt52@ptpt52.info
                serial:C0:88:3D:60:26:EF:85:6F

            X509v3 Extended Key Usage: 
                TLS Web Client Authentication
            X509v3 Key Usage: 
                Digital Signature
            X509v3 Subject Alternative Name: 
                DNS:client
    Signature Algorithm: sha256WithRSAEncryption
         9e:96:58:bd:c7:80:e6:c3:dd:7a:91:df:7f:96:c9:f5:e2:3f:
         9f:98:86:4d:30:3d:50:61:31:7e:31:2d:9a:bc:f5:20:27:ed:
         58:03:a9:31:5c:e1:c1:8c:43:42:62:c3:67:49:bb:68:fe:2a:
         90:de:d4:15:e6:a1:55:e0:ee:a7:d6:79:12:0e:ba:1e:a5:06:
         f0:73:33:68:cb:70:c0:b9:55:14:9a:b9:45:73:fc:62:07:07:
         41:8d:2c:ba:7c:1e:01:49:07:9f:3e:65:40:ad:c5:be:66:5b:
         14:23:bd:8c:df:ae:12:f1:f0:98:76:3c:47:53:4c:b2:fd:df:
         d7:67:ff:45:1b:53:9f:f4:2f:d6:08:c7:5b:e5:ed:b9:27:2d:
         4c:3b:df:5a:8d:3b:53:c9:8e:dc:5b:46:16:76:f2:41:0d:cb:
         d0:cc:37:07:bd:11:92:be:75:c4:43:1a:91:78:9b:d2:27:ca:
         fc:48:79:88:bc:c9:2f:36:c2:d5:85:62:43:4e:32:78:e9:00:
         fb:05:4f:99:01:90:34:f6:fc:ec:7e:77:3f:8c:39:29:80:f4:
         43:7f:ea:61:7e:32:3a:07:65:ae:8c:a3:92:c0:84:a0:21:71:
         16:89:c7:10:38:aa:af:e6:b4:b8:24:ee:5a:a2:fe:17:42:5a:
         21:85:56:dc
-----BEGIN CERTIFICATE-----
MIIFKTCCBBGgAwIBAgIBAjANBgkqhkiG9w0BAQsFADCBoTELMAkGA1UEBhMCQ04x
EjAQBgNVBAgTCUd1YW5nZG9uZzERMA8GA1UEBxMIU2hlbnpoZW4xDzANBgNVBAoT
BlBUUFQ1MjESMBAGA1UECxMJUFRQVDUyIE9VMRIwEAYDVQQDEwlQVFBUNTIgQ0Ex
DzANBgNVBCkTBk5hdGNhcDEhMB8GCSqGSIb3DQEJARYScHRwdDUyQHB0cHQ1Mi5p
bmZvMB4XDTE3MTEyNTEyMjQ0M1oXDTI3MTEyMzEyMjQ0M1owgZ4xCzAJBgNVBAYT
AkNOMRIwEAYDVQQIEwlHdWFuZ2RvbmcxETAPBgNVBAcTCFNoZW56aGVuMQ8wDQYD
VQQKEwZQVFBUNTIxEjAQBgNVBAsTCVBUUFQ1MiBPVTEPMA0GA1UEAxMGY2xpZW50
MQ8wDQYDVQQpEwZOYXRjYXAxITAfBgkqhkiG9w0BCQEWEnB0cHQ1MkBwdHB0NTIu
aW5mbzCCASIwDQYJKoZIhvcNAQEBBQADggEPADCCAQoCggEBAL4UX6nWkJ2+wvMz
FOJhMVa0mfINYf6P1LJ5fP/w2HUWOVNYYQeJdrgixhB/8SRffsgrMj+6jF4gha9p
Y8/35yriMeTwVxlZ85DvLBNLSuslsAIovQTLQncmWLL9ru3YQtyzK1ovmNR/cb2U
mGdTR8KLN8GRTBR8/DDdQWDghEC07YJzDNaObcmy5eOOaJwgoi7GHJdHN2Ohs2se
5fvUGdMsUq5KAtzs2SK291cHzPYfq84pe0pAXN8Utr5IpVO95QG/fqy2c+gvEYWa
1bSCUOQlvQJqWjDSzaTvOk0aT1/ni4Rl4WyLPO/pbJMSZnoVyoR+O2/lDNZ2EglC
NmatE2UCAwEAAaOCAWswggFnMAkGA1UdEwQCMAAwLQYJYIZIAYb4QgENBCAWHkVh
c3ktUlNBIEdlbmVyYXRlZCBDZXJ0aWZpY2F0ZTAdBgNVHQ4EFgQUwkGVIbraWozv
E6ZIGXh5CRYP8jQwgdYGA1UdIwSBzjCBy4AUebojVh/rH+3wUNiChnnswlqkjRyh
gaekgaQwgaExCzAJBgNVBAYTAkNOMRIwEAYDVQQIEwlHdWFuZ2RvbmcxETAPBgNV
BAcTCFNoZW56aGVuMQ8wDQYDVQQKEwZQVFBUNTIxEjAQBgNVBAsTCVBUUFQ1MiBP
VTESMBAGA1UEAxMJUFRQVDUyIENBMQ8wDQYDVQQpEwZOYXRjYXAxITAfBgkqhkiG
9w0BCQEWEnB0cHQ1MkBwdHB0NTIuaW5mb4IJAMCIPWAm74VvMBMGA1UdJQQMMAoG
CCsGAQUFBwMCMAsGA1UdDwQEAwIHgDARBgNVHREECjAIggZjbGllbnQwDQYJKoZI
hvcNAQELBQADggEBAJ6WWL3HgObD3XqR33+WyfXiP5+Yhk0wPVBhMX4xLZq89SAn
7VgDqTFc4cGMQ0Jiw2dJu2j+KpDe1BXmoVXg7qfWeRIOuh6lBvBzM2jLcMC5VRSa
uUVz/GIHB0GNLLp8HgFJB58+ZUCtxb5mWxQjvYzfrhLx8Jh2PEdTTLL939dn/0Ub
U5/0L9YIx1vl7bknLUw731qNO1PJjtxbRhZ28kENy9DMNwe9EZK+dcRDGpF4m9In
yvxIeYi8yS82wtWFYkNOMnjpAPsFT5kBkDT2/Ox+dz+MOSmA9EN/6mF+MjoHZa6M
o5LAhKAhcRaJxxA4qq/mtLgk7lqi/hdCWiGFVtw=
-----END CERTIFICATE-----
